; Function Attrs: cold nounwind optsize uwtable
define internal void @uninit(ptr noundef readonly captures(none) %0) #0 {
  %2 = getelementptr inbounds nuw i8, ptr %0, i64 72
  %3 = load ptr, ptr %2, align 8, !tbaa !4
  %4 = getelementptr inbounds nuw i8, ptr %3, i64 48
  %5 = load ptr, ptr %4, align 8, !tbaa !36
  tail call void @av_expr_free(ptr noundef %5) #14
  store ptr null, ptr %4, align 8, !tbaa !36
  %6 = getelementptr inbounds nuw i8, ptr %3, i64 88
  %7 = load ptr, ptr %6, align 8, !tbaa !31
  %.not = icmp eq ptr %7, null
  br i1 %.not, label %10, label %8

8:                                                ; preds = %1
  %9 = tail call i32 @avio_closep(ptr noundef nonnull %6) #14
  br label %10

10:                                               ; preds = %8, %1
  ret void
}